; Function Attrs: nounwind sspstrong uwtable
define dso_local range(i32 -1, 1) i32 @bdrv_all_goto_snapshot(ptr noundef %name, i1 noundef zeroext %has_devices, ptr noundef %devices, ptr noundef %errp) local_unnamed_addr #0 {
entry:
  %bdrvs = alloca ptr, align 8
  store ptr null, ptr %bdrvs, align 8
  %call = tail call zeroext i1 @qemu_in_main_thread() #6
  br i1 %call, label %do.end, label %if.else

if.else:                                          ; preds = %entry
  tail call void @__assert_fail(ptr noundef nonnull @.str.6, ptr noundef nonnull @.str.7, i32 noundef 618, ptr noundef nonnull @__PRETTY_FUNCTION__.bdrv_all_goto_snapshot) #7
  unreachable

do.end:                                           ; preds = %entry
  tail call void @bdrv_graph_rdlock_main_loop() #6
  %call1 = call fastcc i32 @bdrv_all_get_snapshot_devices(i1 noundef zeroext %has_devices, ptr noundef %devices, ptr noundef %bdrvs, ptr noundef %errp)
  tail call void @bdrv_graph_rdunlock_main_loop() #6
  %cmp = icmp slt i32 %call1, 0
  %bdrvs.val.pre = load ptr, ptr %bdrvs, align 8
  br i1 %cmp, label %cleanup, label %while.cond.preheader

while.cond.preheader:                             ; preds = %do.end
  %tobool4.not14 = icmp eq ptr %bdrvs.val.pre, null
  br i1 %tobool4.not14, label %glib_autoptr_cleanup_GList.exit, label %while.body.lr.ph

while.body.lr.ph:                                 ; preds = %while.cond.preheader
  %tobool8.not.not = icmp eq ptr %devices, null
  br i1 %tobool8.not.not, label %while.body, label %while.body.us

while.body.us:                                    ; preds = %while.body.lr.ph, %if.end14.us
  %iterbdrvs.015.us = phi ptr [ %iterbdrvs.0.us, %if.end14.us ], [ %bdrvs.val.pre, %while.body.lr.ph ]
  %0 = load ptr, ptr %iterbdrvs.015.us, align 8
  %call5.us = tail call ptr @bdrv_get_aio_context(ptr noundef %0) #6
  tail call void @aio_context_acquire(ptr noundef %call5.us) #6
  tail call void @bdrv_graph_rdlock_main_loop() #6
  %call.i.us = tail call zeroext i1 @qemu_in_main_thread() #6
  br i1 %call.i.us, label %do.end.i.us, label %if.else.i

do.end.i.us:                                      ; preds = %while.body.us
  tail call void @assert_bdrv_graph_readable() #6
  %call1.i.us = tail call zeroext i1 @bdrv_is_inserted(ptr noundef %0) #6
  br i1 %call1.i.us, label %lor.lhs.false.i.us, label %bdrv_all_snapshots_includes_bs.exit.us

lor.lhs.false.i.us:                               ; preds = %do.end.i.us
  %call2.i.us = tail call zeroext i1 @bdrv_is_read_only(ptr noundef %0) #6
  br i1 %call2.i.us, label %bdrv_all_snapshots_includes_bs.exit.us, label %if.end4.i.us

if.end4.i.us:                                     ; preds = %lor.lhs.false.i.us
  %call5.i.us = tail call zeroext i1 @bdrv_has_blk(ptr noundef %0) #6
  br label %bdrv_all_snapshots_includes_bs.exit.us

bdrv_all_snapshots_includes_bs.exit.us:           ; preds = %if.end4.i.us, %lor.lhs.false.i.us, %do.end.i.us
  tail call void @bdrv_graph_rdunlock_main_loop() #6
  %call10.us = tail call i32 @bdrv_snapshot_goto(ptr noundef %0, ptr noundef %name, ptr noundef %errp)
  %1 = icmp slt i32 %call10.us, 0
  tail call void @aio_context_release(ptr noundef %call5.us) #6
  br i1 %1, label %if.then12, label %if.end14.us

if.end14.us:                                      ; preds = %bdrv_all_snapshots_includes_bs.exit.us
  %next.us = getelementptr inbounds nuw i8, ptr %iterbdrvs.015.us, i64 8
  %iterbdrvs.0.us = load ptr, ptr %next.us, align 8
  %tobool4.not.us = icmp eq ptr %iterbdrvs.0.us, null
  br i1 %tobool4.not.us, label %cleanup, label %while.body.us, !llvm.loop !15

while.body:                                       ; preds = %while.body.lr.ph, %if.end14
  %iterbdrvs.015 = phi ptr [ %iterbdrvs.0, %if.end14 ], [ %bdrvs.val.pre, %while.body.lr.ph ]
  %2 = load ptr, ptr %iterbdrvs.015, align 8
  %call5 = tail call ptr @bdrv_get_aio_context(ptr noundef %2) #6
  tail call void @aio_context_acquire(ptr noundef %call5) #6
  tail call void @bdrv_graph_rdlock_main_loop() #6
  %call.i = tail call zeroext i1 @qemu_in_main_thread() #6
  br i1 %call.i, label %do.end.i, label %if.else.i

if.else.i:                                        ; preds = %while.body.us, %while.body
  tail call void @__assert_fail(ptr noundef nonnull @.str.6, ptr noundef nonnull @.str.7, i32 noundef 516, ptr noundef nonnull @__PRETTY_FUNCTION__.bdrv_all_snapshots_includes_bs) #7
  unreachable

do.end.i:                                         ; preds = %while.body
  tail call void @assert_bdrv_graph_readable() #6
  %call1.i = tail call zeroext i1 @bdrv_is_inserted(ptr noundef %2) #6
  br i1 %call1.i, label %lor.lhs.false.i, label %if.end14.critedge.critedge

lor.lhs.false.i:                                  ; preds = %do.end.i
  %call2.i = tail call zeroext i1 @bdrv_is_read_only(ptr noundef %2) #6
  br i1 %call2.i, label %if.end14.critedge.critedge, label %if.end4.i

if.end4.i:                                        ; preds = %lor.lhs.false.i
  %call5.i = tail call zeroext i1 @bdrv_has_blk(ptr noundef %2) #6
  br i1 %call5.i, label %cond.true.critedge, label %lor.rhs.i

lor.rhs.i:                                        ; preds = %if.end4.i
  %parents.i = getelementptr inbounds nuw i8, ptr %2, i64 16848
  %3 = load ptr, ptr %parents.i, align 8
  %cmp.i = icmp eq ptr %3, null
  tail call void @bdrv_graph_rdunlock_main_loop() #6
  br i1 %cmp.i, label %cond.true, label %if.end14.critedge

cond.true.critedge:                               ; preds = %if.end4.i
  tail call void @bdrv_graph_rdunlock_main_loop() #6
  br label %cond.true

cond.true:                                        ; preds = %cond.true.critedge, %lor.rhs.i
  %call10 = tail call i32 @bdrv_snapshot_goto(ptr noundef %2, ptr noundef %name, ptr noundef %errp)
  %4 = icmp slt i32 %call10, 0
  tail call void @aio_context_release(ptr noundef %call5) #6
  br i1 %4, label %if.then12, label %if.end14

if.then12:                                        ; preds = %bdrv_all_snapshots_includes_bs.exit.us, %cond.true
  %.us-phi = phi ptr [ %2, %cond.true ], [ %0, %bdrv_all_snapshots_includes_bs.exit.us ]
  tail call void @bdrv_graph_rdlock_main_loop() #6
  %call13 = tail call ptr @bdrv_get_device_or_node_name(ptr noundef %.us-phi) #6
  tail call void (ptr, ptr, ...) @error_prepend(ptr noundef %errp, ptr noundef nonnull @.str.23, ptr noundef %name, ptr noundef %call13) #6
  tail call void @bdrv_graph_rdunlock_main_loop() #6
  br label %cleanup

if.end14.critedge.critedge:                       ; preds = %do.end.i, %lor.lhs.false.i
  tail call void @bdrv_graph_rdunlock_main_loop() #6
  br label %if.end14.critedge

if.end14.critedge:                                ; preds = %if.end14.critedge.critedge, %lor.rhs.i
  tail call void @aio_context_release(ptr noundef %call5) #6
  br label %if.end14

if.end14:                                         ; preds = %if.end14.critedge, %cond.true
  %next = getelementptr inbounds nuw i8, ptr %iterbdrvs.015, i64 8
  %iterbdrvs.0 = load ptr, ptr %next, align 8
  %tobool4.not = icmp eq ptr %iterbdrvs.0, null
  br i1 %tobool4.not, label %cleanup, label %while.body, !llvm.loop !15

cleanup:                                          ; preds = %if.end14.us, %if.end14, %do.end, %if.then12
  %retval.0 = phi i32 [ -1, %if.then12 ], [ -1, %do.end ], [ 0, %if.end14 ], [ 0, %if.end14.us ]
  %tobool.not.i.i = icmp eq ptr %bdrvs.val.pre, null
  br i1 %tobool.not.i.i, label %glib_autoptr_cleanup_GList.exit, label %if.then.i.i

if.then.i.i:                                      ; preds = %cleanup
  tail call void @g_list_free(ptr noundef nonnull %bdrvs.val.pre) #6
  br label %glib_autoptr_cleanup_GList.exit

glib_autoptr_cleanup_GList.exit:                  ; preds = %while.cond.preheader, %cleanup, %if.then.i.i
  %retval.025 = phi i32 [ %retval.0, %cleanup ], [ %retval.0, %if.then.i.i ], [ 0, %while.cond.preheader ]
  ret i32 %retval.025
}